; Function Attrs: nounwind uwtable
define dso_local void @php_error_docref_unchecked(ptr noundef %0, i32 noundef %1, ptr noundef %2, ...) local_unnamed_addr #2 {
  %4 = alloca [1 x %struct.__va_list_tag], align 16
  call void @llvm.lifetime.start.p0(i64 24, ptr nonnull %4) #28
  call void @llvm.va_start.p0(ptr nonnull %4)
  call void @php_verror(ptr noundef %0, ptr noundef nonnull @.str.3, i32 noundef %1, ptr noundef %2, ptr noundef nonnull %4)
  call void @llvm.va_end.p0(ptr nonnull %4)
  call void @llvm.lifetime.end.p0(i64 24, ptr nonnull %4) #28
  ret void
}